; Function Attrs: mustprogress uwtable
define void @ucm_closeTable(ptr noundef %0) local_unnamed_addr #2 {
  %.not = icmp eq ptr %0, null
  br i1 %.not, label %10, label %2

2:                                                ; preds = %1
  %3 = load ptr, ptr %0, align 8, !tbaa !23
  tail call void @uprv_free_77(ptr noundef %3)
  %4 = getelementptr inbounds nuw i8, ptr %0, i64 16
  %5 = load ptr, ptr %4, align 8, !tbaa !8
  tail call void @uprv_free_77(ptr noundef %5)
  %6 = getelementptr inbounds nuw i8, ptr %0, i64 32
  %7 = load ptr, ptr %6, align 8, !tbaa !16
  tail call void @uprv_free_77(ptr noundef %7)
  %8 = getelementptr inbounds nuw i8, ptr %0, i64 48
  %9 = load ptr, ptr %8, align 8, !tbaa !26
  tail call void @uprv_free_77(ptr noundef %9)
  tail call void @uprv_free_77(ptr noundef nonnull %0)
  br label %10

10:                                               ; preds = %2, %1
  ret void
}